target datalayout = "e-m:e-p270:32:32-p271:32:32-p272:64:64-i64:64-i128:128-f80:128-n8:16:32:64-S128"
target triple = "x86_64-pc-linux-gnu"

%"class.OpenSubdiv::v3_6_0::Bfr::SurfaceFactory" = type { %"class.OpenSubdiv::v3_6_0::Bfr::SurfaceFactoryMeshAdapter", i32, %"class.OpenSubdiv::v3_6_0::Sdc::Options", %"class.OpenSubdiv::v3_6_0::Bfr::SurfaceFactory::Options", i8, i32, ptr }
%"class.OpenSubdiv::v3_6_0::Bfr::SurfaceFactoryMeshAdapter" = type { ptr }
%"class.OpenSubdiv::v3_6_0::Sdc::Options" = type { i8, i8, i8, i8 }
%"class.OpenSubdiv::v3_6_0::Bfr::SurfaceFactory::Options" = type <{ i64, ptr, i8, i8, i8, [5 x i8] }>
%"class.OpenSubdiv::v3_6_0::Bfr::MultiVertexTag" = type { %"class.OpenSubdiv::v3_6_0::Bfr::FeatureBits" }
%"class.OpenSubdiv::v3_6_0::Bfr::FeatureBits" = type { i16 }
%"class.OpenSubdiv::v3_6_0::Bfr::FaceTopology" = type { i32, %"class.OpenSubdiv::v3_6_0::Sdc::Options", i32, i32, i32, %"class.OpenSubdiv::v3_6_0::Bfr::MultiVertexTag", i8, %"class.OpenSubdiv::v3_6_0::Vtr::internal::StackBuffer" }
%"class.OpenSubdiv::v3_6_0::Vtr::internal::StackBuffer" = type { ptr, i32, i32, [896 x i8], ptr }

; Function Attrs: mustprogress nounwind uwtable
define linkonce_odr void @_ZN10OpenSubdiv6v3_6_03Bfr11FeatureBitsD2Ev(ptr noundef nonnull align 2 dereferenceable(2) %0) unnamed_addr #0 comdat align 2 {
  %2 = alloca ptr, align 8
  store ptr %0, ptr %2, align 8
  ret void
}

; Function Attrs: mustprogress nounwind uwtable
define linkonce_odr void @_ZN10OpenSubdiv6v3_6_03Bfr14MultiVertexTagD2Ev(ptr noundef nonnull align 2 dereferenceable(2) %0) unnamed_addr #0 comdat align 2 {
  %2 = alloca ptr, align 8
  store ptr %0, ptr %2, align 8
  %3 = load ptr, ptr %2, align 8
  call void @_ZN10OpenSubdiv6v3_6_03Bfr11FeatureBitsD2Ev(ptr noundef nonnull align 2 dereferenceable(2) %3) #10
  ret void
}

; Function Attrs: mustprogress nounwind uwtable
define linkonce_odr noundef zeroext i1 @_ZNK10OpenSubdiv6v3_6_03Bfr14MultiVertexTag21HasIrregularFaceSizesEv(ptr noundef nonnull align 2 dereferenceable(2) %0) #0 comdat align 2 {
  %2 = alloca ptr, align 8
  store ptr %0, ptr %2, align 8
  %3 = load ptr, ptr %2, align 8
  %4 = load i16, ptr %3, align 2
  %5 = lshr i16 %4, 7
  %6 = and i16 %5, 1
  %7 = icmp ne i16 %6, 0
  ret i1 %7
}

; Function Attrs: mustprogress nounwind uwtable
define linkonce_odr noundef zeroext i1 @_ZNK10OpenSubdiv6v3_6_03Bfr14MultiVertexTag19HasNonSharpBoundaryEv(ptr noundef nonnull align 2 dereferenceable(2) %0) #0 comdat align 2 {
  %2 = alloca ptr, align 8
  store ptr %0, ptr %2, align 8
  %3 = load ptr, ptr %2, align 8
  %4 = load i16, ptr %3, align 2
  %5 = lshr i16 %4, 10
  %6 = and i16 %5, 1
  %7 = icmp ne i16 %6, 0
  ret i1 %7
}

; Function Attrs: mustprogress nounwind uwtable
define linkonce_odr void @_ZNK10OpenSubdiv6v3_6_03Bfr12FaceTopology6GetTagEv(ptr dead_on_unwind noalias writable sret(%"class.OpenSubdiv::v3_6_0::Bfr::MultiVertexTag") align 2 %0, ptr noundef nonnull align 8 dereferenceable(944) %1) #0 comdat align 2 {
  %3 = alloca ptr, align 8
  %4 = alloca ptr, align 8
  store ptr %0, ptr %3, align 8
  store ptr %1, ptr %4, align 8
  %5 = load ptr, ptr %4, align 8
  %6 = getelementptr inbounds nuw %"class.OpenSubdiv::v3_6_0::Bfr::FaceTopology", ptr %5, i32 0, i32 5
  call void @llvm.memcpy.p0.p0.i64(ptr align 2 %0, ptr align 4 %6, i64 2, i1 false)
  ret void
}

; Function Attrs: mustprogress uwtable
define noundef zeroext i1 @_ZNK10OpenSubdiv6v3_6_03Bfr14SurfaceFactory24faceHasLimitNeighborhoodERKNS1_12FaceTopologyE(ptr noundef nonnull align 8 dereferenceable(56) %0, ptr noundef nonnull align 8 dereferenceable(944) %1) #1 align 2 personality ptr @__gxx_personality_v0 {
  %3 = alloca i1, align 1
  %4 = alloca ptr, align 8
  %5 = alloca ptr, align 8
  %6 = alloca %"class.OpenSubdiv::v3_6_0::Bfr::MultiVertexTag", align 2
  %7 = alloca ptr, align 8
  %8 = alloca i32, align 4
  %9 = alloca i32, align 4
  store ptr %0, ptr %4, align 8
  store ptr %1, ptr %5, align 8
  %10 = load ptr, ptr %4, align 8
  %11 = load ptr, ptr %5, align 8
  call void @_ZNK10OpenSubdiv6v3_6_03Bfr12FaceTopology6GetTagEv(ptr dead_on_unwind writable sret(%"class.OpenSubdiv::v3_6_0::Bfr::MultiVertexTag") align 2 %6, ptr noundef nonnull align 8 dereferenceable(944) %11)
  %12 = getelementptr inbounds nuw %"class.OpenSubdiv::v3_6_0::Bfr::SurfaceFactory", ptr %10, i32 0, i32 4
  %13 = load i8, ptr %12, align 8
  %14 = lshr i8 %13, 3
  %15 = and i8 %14, 1
  %16 = zext i8 %15 to i32
  %17 = icmp ne i32 %16, 0
  br i1 %17, label %18, label %21

18:                                               ; preds = %2
  %19 = invoke noundef zeroext i1 @_ZNK10OpenSubdiv6v3_6_03Bfr14MultiVertexTag19HasNonSharpBoundaryEv(ptr noundef nonnull align 2 dereferenceable(2) %6)
          to label %20 unwind label %32

20:                                               ; preds = %18
  br i1 %19, label %31, label %21

21:                                               ; preds = %20, %2
  %22 = getelementptr inbounds nuw %"class.OpenSubdiv::v3_6_0::Bfr::SurfaceFactory", ptr %10, i32 0, i32 4
  %23 = load i8, ptr %22, align 8
  %24 = lshr i8 %23, 4
  %25 = and i8 %24, 1
  %26 = zext i8 %25 to i32
  %27 = icmp ne i32 %26, 0
  br i1 %27, label %28, label %36

28:                                               ; preds = %21
  %29 = invoke noundef zeroext i1 @_ZNK10OpenSubdiv6v3_6_03Bfr14MultiVertexTag21HasIrregularFaceSizesEv(ptr noundef nonnull align 2 dereferenceable(2) %6)
          to label %30 unwind label %32

30:                                               ; preds = %28
  br i1 %29, label %31, label %36

31:                                               ; preds = %30, %20
  store i1 false, ptr %3, align 1
  store i32 1, ptr %9, align 4
  br label %37

32:                                               ; preds = %28, %18
  %33 = landingpad { ptr, i32 }
          cleanup
  %34 = extractvalue { ptr, i32 } %33, 0
  store ptr %34, ptr %7, align 8
  %35 = extractvalue { ptr, i32 } %33, 1
  store i32 %35, ptr %8, align 4
  call void @_ZN10OpenSubdiv6v3_6_03Bfr14MultiVertexTagD2Ev(ptr noundef nonnull align 2 dereferenceable(2) %6) #10
  br label %39

36:                                               ; preds = %30, %21
  store i1 true, ptr %3, align 1
  store i32 1, ptr %9, align 4
  br label %37

37:                                               ; preds = %36, %31
  call void @_ZN10OpenSubdiv6v3_6_03Bfr14MultiVertexTagD2Ev(ptr noundef nonnull align 2 dereferenceable(2) %6) #10
  %38 = load i1, ptr %3, align 1
  ret i1 %38

39:                                               ; preds = %32
  %40 = load ptr, ptr %7, align 8
  %41 = load i32, ptr %8, align 4
  %42 = insertvalue { ptr, i32 } poison, ptr %40, 0
  %43 = insertvalue { ptr, i32 } %42, i32 %41, 1
  resume { ptr, i32 } %43
}