; Function Attrs: mustprogress nofree norecurse nosync nounwind willreturn memory(argmem: read) uwtable
define noundef zeroext i1 @_ZNK10OpenSubdiv6v3_6_03Bfr14SurfaceFactory24faceHasLimitNeighborhoodERKNS1_12FaceTopologyE(ptr noundef nonnull readonly align 8 captures(none) dereferenceable(56) %0, ptr noundef nonnull readonly align 8 captures(none) dereferenceable(944) %1) local_unnamed_addr #8 align 2 personality ptr @__gxx_personality_v0 {
  %3 = getelementptr inbounds nuw i8, ptr %1, i64 20
  %4 = load i16, ptr %3, align 4, !noalias !5
  %5 = getelementptr inbounds nuw i8, ptr %0, i64 40
  %6 = load i8, ptr %5, align 8
  %7 = and i8 %6, 8
  %.not = icmp ne i8 %7, 0
  %8 = and i16 %4, 1024
  %9 = icmp ne i16 %8, 0
  %or.cond = select i1 %.not, i1 %9, i1 false
  br i1 %or.cond, label %14, label %10

10:                                               ; preds = %2
  %11 = and i8 %6, 16
  %.not3 = icmp eq i8 %11, 0
  %12 = and i16 %4, 128
  %13 = icmp eq i16 %12, 0
  %or.cond7.not = select i1 %.not3, i1 true, i1 %13
  br label %14

14:                                               ; preds = %10, %2
  %.0 = phi i1 [ false, %2 ], [ %or.cond7.not, %10 ]
  ret i1 %.0
}